target datalayout = "e-m:e-p270:32:32-p271:32:32-p272:64:64-i64:64-i128:128-f80:128-n8:16:32:64-S128"
target triple = "x86_64-unknown-linux-gnu"

%"class.absl::lts_20230802::Status" = type { i64 }
%"class.grpc_core::Orphanable" = type { ptr }
%"struct.std::_Rb_tree_key_compare" = type { %"struct.std::less" }
%"struct.std::less" = type { i8 }
%"struct.std::_Rb_tree_header" = type { %"struct.std::_Rb_tree_node_base", i64 }
%"struct.std::_Rb_tree_node_base" = type { i32, ptr, ptr, ptr }
%"class.std::__cxx11::basic_string" = type { %"struct.std::__cxx11::basic_string<char>::_Alloc_hider", i64, %union.anon }
%"struct.std::__cxx11::basic_string<char>::_Alloc_hider" = type { ptr }
%union.anon = type { i64, [8 x i8] }
%"struct.std::atomic.19" = type { %"struct.std::__atomic_base.20" }
%"struct.std::__atomic_base.20" = type { i64 }
%"struct.std::_Rb_tree_key_compare.71" = type { %"struct.std::less.72" }
%"struct.std::less.72" = type { i8 }
%"class.grpc_core::RefCount" = type { %"struct.std::atomic.19" }
%"class.grpc_core::XdsClient::ChannelState::AdsCallState" = type { %"class.grpc_core::InternallyRefCounted.105", %"class.grpc_core::RefCountedPtr", %"class.std::unique_ptr.106", i8, i8, ptr, %"class.std::set", %"class.std::map.116" }
%"class.grpc_core::InternallyRefCounted.105" = type { %"class.grpc_core::Orphanable", %"class.grpc_core::RefCount" }
%"class.grpc_core::RefCountedPtr" = type { ptr }
%"class.std::unique_ptr.106" = type { %"struct.std::__uniq_ptr_data.107" }
%"struct.std::__uniq_ptr_data.107" = type { %"class.std::__uniq_ptr_impl.108" }
%"class.std::__uniq_ptr_impl.108" = type { %"class.std::tuple.109" }
%"class.std::tuple.109" = type { %"struct.std::_Tuple_impl.110" }
%"struct.std::_Tuple_impl.110" = type { %"struct.std::_Head_base.111" }
%"struct.std::_Head_base.111" = type { ptr }
%"class.std::set" = type { %"class.std::_Rb_tree.112" }
%"class.std::_Rb_tree.112" = type { %"struct.std::_Rb_tree<const grpc_core::XdsResourceType *, const grpc_core::XdsResourceType *, std::_Identity<const grpc_core::XdsResourceType *>, std::less<const grpc_core::XdsResourceType *>>::_Rb_tree_impl" }
%"struct.std::_Rb_tree<const grpc_core::XdsResourceType *, const grpc_core::XdsResourceType *, std::_Identity<const grpc_core::XdsResourceType *>, std::less<const grpc_core::XdsResourceType *>>::_Rb_tree_impl" = type { %"struct.std::_Rb_tree_key_compare", %"struct.std::_Rb_tree_header" }
%"class.std::map.116" = type { %"class.std::_Rb_tree.117" }
%"class.std::_Rb_tree.117" = type { %"struct.std::_Rb_tree<const grpc_core::XdsResourceType *, std::pair<const grpc_core::XdsResourceType *const, grpc_core::XdsClient::ChannelState::AdsCallState::ResourceTypeState>, std::_Select1st<std::pair<const grpc_core::XdsResourceType *const, grpc_core::XdsClient::ChannelState::AdsCallState::ResourceTypeState>>, std::less<const grpc_core::XdsResourceType *>>::_Rb_tree_impl" }
%"struct.std::_Rb_tree<const grpc_core::XdsResourceType *, std::pair<const grpc_core::XdsResourceType *const, grpc_core::XdsClient::ChannelState::AdsCallState::ResourceTypeState>, std::_Select1st<std::pair<const grpc_core::XdsResourceType *const, grpc_core::XdsClient::ChannelState::AdsCallState::ResourceTypeState>>, std::less<const grpc_core::XdsResourceType *>>::_Rb_tree_impl" = type { %"struct.std::_Rb_tree_key_compare", %"struct.std::_Rb_tree_header" }
%"struct.grpc_core::XdsClient::ChannelState::AdsCallState::ResourceTypeState" = type { %"class.std::__cxx11::basic_string", %"class.absl::lts_20230802::Status", %"class.std::map.198" }
%"class.std::map.198" = type { %"class.std::_Rb_tree.199" }
%"class.std::_Rb_tree.199" = type { %"struct.std::_Rb_tree<std::__cxx11::basic_string<char>, std::pair<const std::__cxx11::basic_string<char>, std::map<grpc_core::XdsClient::XdsResourceKey, std::unique_ptr<grpc_core::XdsClient::ChannelState::AdsCallState::ResourceTimer, grpc_core::OrphanableDelete>>>, std::_Select1st<std::pair<const std::__cxx11::basic_string<char>, std::map<grpc_core::XdsClient::XdsResourceKey, std::unique_ptr<grpc_core::XdsClient::ChannelState::AdsCallState::ResourceTimer, grpc_core::OrphanableDelete>>>>, std::less<std::__cxx11::basic_string<char>>>::_Rb_tree_impl" }
%"struct.std::_Rb_tree<std::__cxx11::basic_string<char>, std::pair<const std::__cxx11::basic_string<char>, std::map<grpc_core::XdsClient::XdsResourceKey, std::unique_ptr<grpc_core::XdsClient::ChannelState::AdsCallState::ResourceTimer, grpc_core::OrphanableDelete>>>, std::_Select1st<std::pair<const std::__cxx11::basic_string<char>, std::map<grpc_core::XdsClient::XdsResourceKey, std::unique_ptr<grpc_core::XdsClient::ChannelState::AdsCallState::ResourceTimer, grpc_core::OrphanableDelete>>>>, std::less<std::__cxx11::basic_string<char>>>::_Rb_tree_impl" = type { %"struct.std::_Rb_tree_key_compare.71", %"struct.std::_Rb_tree_header" }
%"struct.std::_Rb_tree_const_iterator.254" = type { ptr }
%"struct.std::pair.196" = type { ptr, %"struct.grpc_core::XdsClient::ChannelState::AdsCallState::ResourceTypeState" }
%"struct.std::_Rb_tree_node.411" = type { %"struct.std::_Rb_tree_node_base", %"struct.__gnu_cxx::__aligned_membuf.412" }
%"struct.__gnu_cxx::__aligned_membuf.412" = type { [96 x i8] }

; Function Attrs: mustprogress nounwind uwtable
define linkonce_odr noundef ptr @_ZNK9__gnu_cxx16__aligned_membufISt4pairIKPKN9grpc_core15XdsResourceTypeENS2_9XdsClient12ChannelState12AdsCallState17ResourceTypeStateEEE7_M_addrEv(ptr noundef nonnull align 8 dereferenceable(96) %this) #5 comdat align 2 {
entry:
  %this.addr = alloca ptr, align 8
  store ptr %this, ptr %this.addr, align 8
  %this1 = load ptr, ptr %this.addr, align 8
  %_M_storage = getelementptr inbounds %"struct.__gnu_cxx::__aligned_membuf.412", ptr %this1, i32 0, i32 0
  ret ptr %_M_storage
}

; Function Attrs: mustprogress nounwind uwtable
define linkonce_odr noundef ptr @_ZNK9__gnu_cxx16__aligned_membufISt4pairIKPKN9grpc_core15XdsResourceTypeENS2_9XdsClient12ChannelState12AdsCallState17ResourceTypeStateEEE6_M_ptrEv(ptr noundef nonnull align 8 dereferenceable(96) %this) #5 comdat align 2 {
entry:
  %this.addr = alloca ptr, align 8
  store ptr %this, ptr %this.addr, align 8
  %this1 = load ptr, ptr %this.addr, align 8
  %call = call noundef ptr @_ZNK9__gnu_cxx16__aligned_membufISt4pairIKPKN9grpc_core15XdsResourceTypeENS2_9XdsClient12ChannelState12AdsCallState17ResourceTypeStateEEE7_M_addrEv(ptr noundef nonnull align 8 dereferenceable(96) %this1) #3
  ret ptr %call
}

; Function Attrs: mustprogress nounwind uwtable
define linkonce_odr void @_ZNSt23_Rb_tree_const_iteratorISt4pairIKPKN9grpc_core15XdsResourceTypeENS1_9XdsClient12ChannelState12AdsCallState17ResourceTypeStateEEEC2EPKSt18_Rb_tree_node_base(ptr noundef nonnull align 8 dereferenceable(8) %this, ptr noundef %__x) unnamed_addr #5 comdat align 2 {
entry:
  %this.addr = alloca ptr, align 8
  %__x.addr = alloca ptr, align 8
  store ptr %this, ptr %this.addr, align 8
  store ptr %__x, ptr %__x.addr, align 8
  %this1 = load ptr, ptr %this.addr, align 8
  %_M_node = getelementptr inbounds %"struct.std::_Rb_tree_const_iterator.254", ptr %this1, i32 0, i32 0
  %0 = load ptr, ptr %__x.addr, align 8
  store ptr %0, ptr %_M_node, align 8
  ret void
}

; Function Attrs: mustprogress nounwind uwtable
define linkonce_odr noundef zeroext i1 @_ZNKSt8_Rb_treeINSt7__cxx1112basic_stringIcSt11char_traitsIcESaIcEEESt4pairIKS5_St3mapIN9grpc_core9XdsClient14XdsResourceKeyESt10unique_ptrINSA_12ChannelState12AdsCallState13ResourceTimerENS9_16OrphanableDeleteEESt4lessISB_ESaIS6_IKSB_SH_EEEESt10_Select1stISO_ESI_IS5_ESaISO_EE5emptyEv(ptr noundef nonnull align 8 dereferenceable(48) %this) #5 comdat align 2 {
entry:
  %this.addr = alloca ptr, align 8
  store ptr %this, ptr %this.addr, align 8
  %this1 = load ptr, ptr %this.addr, align 8
  %_M_impl = getelementptr inbounds %"class.std::_Rb_tree.199", ptr %this1, i32 0, i32 0
  %add.ptr = getelementptr inbounds i8, ptr %_M_impl, i64 8
  %_M_node_count = getelementptr inbounds %"struct.std::_Rb_tree_header", ptr %add.ptr, i32 0, i32 1
  %0 = load i64, ptr %_M_node_count, align 8
  %cmp = icmp eq i64 %0, 0
  ret i1 %cmp
}

; Function Attrs: mustprogress nounwind uwtable
define linkonce_odr noundef ptr @_ZNKSt13_Rb_tree_nodeISt4pairIKPKN9grpc_core15XdsResourceTypeENS1_9XdsClient12ChannelState12AdsCallState17ResourceTypeStateEEE9_M_valptrEv(ptr noundef nonnull align 8 dereferenceable(128) %this) #5 comdat align 2 {
entry:
  %this.addr = alloca ptr, align 8
  store ptr %this, ptr %this.addr, align 8
  %this1 = load ptr, ptr %this.addr, align 8
  %_M_storage = getelementptr inbounds %"struct.std::_Rb_tree_node.411", ptr %this1, i32 0, i32 1
  %call = call noundef ptr @_ZNK9__gnu_cxx16__aligned_membufISt4pairIKPKN9grpc_core15XdsResourceTypeENS2_9XdsClient12ChannelState12AdsCallState17ResourceTypeStateEEE6_M_ptrEv(ptr noundef nonnull align 8 dereferenceable(96) %_M_storage) #3
  ret ptr %call
}

; Function Attrs: mustprogress nounwind uwtable
define linkonce_odr ptr @_ZNKSt8_Rb_treeIPKN9grpc_core15XdsResourceTypeESt4pairIKS3_NS0_9XdsClient12ChannelState12AdsCallState17ResourceTypeStateEESt10_Select1stISA_ESt4lessIS3_ESaISA_EE3endEv(ptr noundef nonnull align 8 dereferenceable(48) %this) #5 comdat align 2 {
entry:
  %retval = alloca %"struct.std::_Rb_tree_const_iterator.254", align 8
  %this.addr = alloca ptr, align 8
  store ptr %this, ptr %this.addr, align 8
  %this1 = load ptr, ptr %this.addr, align 8
  %_M_impl = getelementptr inbounds %"class.std::_Rb_tree.117", ptr %this1, i32 0, i32 0
  %add.ptr = getelementptr inbounds i8, ptr %_M_impl, i64 8
  %_M_header = getelementptr inbounds %"struct.std::_Rb_tree_header", ptr %add.ptr, i32 0, i32 0
  call void @_ZNSt23_Rb_tree_const_iteratorISt4pairIKPKN9grpc_core15XdsResourceTypeENS1_9XdsClient12ChannelState12AdsCallState17ResourceTypeStateEEEC2EPKSt18_Rb_tree_node_base(ptr noundef nonnull align 8 dereferenceable(8) %retval, ptr noundef %_M_header) #3
  %coerce.dive = getelementptr inbounds %"struct.std::_Rb_tree_const_iterator.254", ptr %retval, i32 0, i32 0
  %0 = load ptr, ptr %coerce.dive, align 8
  ret ptr %0
}

; Function Attrs: mustprogress nounwind uwtable
define linkonce_odr ptr @_ZNKSt8_Rb_treeIPKN9grpc_core15XdsResourceTypeESt4pairIKS3_NS0_9XdsClient12ChannelState12AdsCallState17ResourceTypeStateEESt10_Select1stISA_ESt4lessIS3_ESaISA_EE5beginEv(ptr noundef nonnull align 8 dereferenceable(48) %this) #5 comdat align 2 {
entry:
  %retval = alloca %"struct.std::_Rb_tree_const_iterator.254", align 8
  %this.addr = alloca ptr, align 8
  store ptr %this, ptr %this.addr, align 8
  %this1 = load ptr, ptr %this.addr, align 8
  %_M_impl = getelementptr inbounds %"class.std::_Rb_tree.117", ptr %this1, i32 0, i32 0
  %add.ptr = getelementptr inbounds i8, ptr %_M_impl, i64 8
  %_M_header = getelementptr inbounds %"struct.std::_Rb_tree_header", ptr %add.ptr, i32 0, i32 0
  %_M_left = getelementptr inbounds %"struct.std::_Rb_tree_node_base", ptr %_M_header, i32 0, i32 2
  %0 = load ptr, ptr %_M_left, align 8
  call void @_ZNSt23_Rb_tree_const_iteratorISt4pairIKPKN9grpc_core15XdsResourceTypeENS1_9XdsClient12ChannelState12AdsCallState17ResourceTypeStateEEEC2EPKSt18_Rb_tree_node_base(ptr noundef nonnull align 8 dereferenceable(8) %retval, ptr noundef %0) #3
  %coerce.dive = getelementptr inbounds %"struct.std::_Rb_tree_const_iterator.254", ptr %retval, i32 0, i32 0
  %1 = load ptr, ptr %coerce.dive, align 8
  ret ptr %1
}

; Function Attrs: mustprogress nounwind uwtable
define linkonce_odr noundef nonnull align 8 dereferenceable(8) ptr @_ZNSt23_Rb_tree_const_iteratorISt4pairIKPKN9grpc_core15XdsResourceTypeENS1_9XdsClient12ChannelState12AdsCallState17ResourceTypeStateEEEppEv(ptr noundef nonnull align 8 dereferenceable(8) %this) #5 comdat align 2 {
entry:
  %this.addr = alloca ptr, align 8
  store ptr %this, ptr %this.addr, align 8
  %this1 = load ptr, ptr %this.addr, align 8
  %_M_node = getelementptr inbounds %"struct.std::_Rb_tree_const_iterator.254", ptr %this1, i32 0, i32 0
  %0 = load ptr, ptr %_M_node, align 8
  %call = call noundef ptr @_ZSt18_Rb_tree_incrementPKSt18_Rb_tree_node_base(ptr noundef %0) #21
  %_M_node2 = getelementptr inbounds %"struct.std::_Rb_tree_const_iterator.254", ptr %this1, i32 0, i32 0
  store ptr %call, ptr %_M_node2, align 8
  ret ptr %this1
}

; Function Attrs: mustprogress nounwind uwtable
define linkonce_odr noundef zeroext i1 @_ZNKSt3mapINSt7__cxx1112basic_stringIcSt11char_traitsIcESaIcEEES_IN9grpc_core9XdsClient14XdsResourceKeyESt10unique_ptrINS7_12ChannelState12AdsCallState13ResourceTimerENS6_16OrphanableDeleteEESt4lessIS8_ESaISt4pairIKS8_SE_EEESF_IS5_ESaISH_IKS5_SL_EEE5emptyEv(ptr noundef nonnull align 8 dereferenceable(48) %this) #5 comdat align 2 {
entry:
  %this.addr = alloca ptr, align 8
  store ptr %this, ptr %this.addr, align 8
  %this1 = load ptr, ptr %this.addr, align 8
  %_M_t = getelementptr inbounds %"class.std::map.198", ptr %this1, i32 0, i32 0
  %call = call noundef zeroext i1 @_ZNKSt8_Rb_treeINSt7__cxx1112basic_stringIcSt11char_traitsIcESaIcEEESt4pairIKS5_St3mapIN9grpc_core9XdsClient14XdsResourceKeyESt10unique_ptrINSA_12ChannelState12AdsCallState13ResourceTimerENS9_16OrphanableDeleteEESt4lessISB_ESaIS6_IKSB_SH_EEEESt10_Select1stISO_ESI_IS5_ESaISO_EE5emptyEv(ptr noundef nonnull align 8 dereferenceable(48) %_M_t) #3
  ret i1 %call
}

; Function Attrs: mustprogress nounwind uwtable
define linkonce_odr noundef nonnull align 8 dereferenceable(96) ptr @_ZNKSt23_Rb_tree_const_iteratorISt4pairIKPKN9grpc_core15XdsResourceTypeENS1_9XdsClient12ChannelState12AdsCallState17ResourceTypeStateEEEdeEv(ptr noundef nonnull align 8 dereferenceable(8) %this) #5 comdat align 2 {
entry:
  %this.addr = alloca ptr, align 8
  store ptr %this, ptr %this.addr, align 8
  %this1 = load ptr, ptr %this.addr, align 8
  %_M_node = getelementptr inbounds %"struct.std::_Rb_tree_const_iterator.254", ptr %this1, i32 0, i32 0
  %0 = load ptr, ptr %_M_node, align 8
  %call = call noundef ptr @_ZNKSt13_Rb_tree_nodeISt4pairIKPKN9grpc_core15XdsResourceTypeENS1_9XdsClient12ChannelState12AdsCallState17ResourceTypeStateEEE9_M_valptrEv(ptr noundef nonnull align 8 dereferenceable(128) %0)
  ret ptr %call
}

; Function Attrs: mustprogress nounwind uwtable
define linkonce_odr noundef zeroext i1 @_ZStneRKSt23_Rb_tree_const_iteratorISt4pairIKPKN9grpc_core15XdsResourceTypeENS1_9XdsClient12ChannelState12AdsCallState17ResourceTypeStateEEESD_(ptr noundef nonnull align 8 dereferenceable(8) %__x, ptr noundef nonnull align 8 dereferenceable(8) %__y) #5 comdat {
entry:
  %__x.addr = alloca ptr, align 8
  %__y.addr = alloca ptr, align 8
  store ptr %__x, ptr %__x.addr, align 8
  store ptr %__y, ptr %__y.addr, align 8
  %0 = load ptr, ptr %__x.addr, align 8
  %_M_node = getelementptr inbounds %"struct.std::_Rb_tree_const_iterator.254", ptr %0, i32 0, i32 0
  %1 = load ptr, ptr %_M_node, align 8
  %2 = load ptr, ptr %__y.addr, align 8
  %_M_node1 = getelementptr inbounds %"struct.std::_Rb_tree_const_iterator.254", ptr %2, i32 0, i32 0
  %3 = load ptr, ptr %_M_node1, align 8
  %cmp = icmp ne ptr %1, %3
  ret i1 %cmp
}

; Function Attrs: mustprogress nounwind uwtable
define linkonce_odr ptr @_ZNKSt3mapIPKN9grpc_core15XdsResourceTypeENS0_9XdsClient12ChannelState12AdsCallState17ResourceTypeStateESt4lessIS3_ESaISt4pairIKS3_S7_EEE3endEv(ptr noundef nonnull align 8 dereferenceable(48) %this) #5 comdat align 2 {
entry:
  %retval = alloca %"struct.std::_Rb_tree_const_iterator.254", align 8
  %this.addr = alloca ptr, align 8
  store ptr %this, ptr %this.addr, align 8
  %this1 = load ptr, ptr %this.addr, align 8
  %_M_t = getelementptr inbounds %"class.std::map.116", ptr %this1, i32 0, i32 0
  %call = call ptr @_ZNKSt8_Rb_treeIPKN9grpc_core15XdsResourceTypeESt4pairIKS3_NS0_9XdsClient12ChannelState12AdsCallState17ResourceTypeStateEESt10_Select1stISA_ESt4lessIS3_ESaISA_EE3endEv(ptr noundef nonnull align 8 dereferenceable(48) %_M_t) #3
  %coerce.dive = getelementptr inbounds %"struct.std::_Rb_tree_const_iterator.254", ptr %retval, i32 0, i32 0
  store ptr %call, ptr %coerce.dive, align 8
  %coerce.dive2 = getelementptr inbounds %"struct.std::_Rb_tree_const_iterator.254", ptr %retval, i32 0, i32 0
  %0 = load ptr, ptr %coerce.dive2, align 8
  ret ptr %0
}

; Function Attrs: mustprogress nounwind uwtable
define linkonce_odr ptr @_ZNKSt3mapIPKN9grpc_core15XdsResourceTypeENS0_9XdsClient12ChannelState12AdsCallState17ResourceTypeStateESt4lessIS3_ESaISt4pairIKS3_S7_EEE5beginEv(ptr noundef nonnull align 8 dereferenceable(48) %this) #5 comdat align 2 {
entry:
  %retval = alloca %"struct.std::_Rb_tree_const_iterator.254", align 8
  %this.addr = alloca ptr, align 8
  store ptr %this, ptr %this.addr, align 8
  %this1 = load ptr, ptr %this.addr, align 8
  %_M_t = getelementptr inbounds %"class.std::map.116", ptr %this1, i32 0, i32 0
  %call = call ptr @_ZNKSt8_Rb_treeIPKN9grpc_core15XdsResourceTypeESt4pairIKS3_NS0_9XdsClient12ChannelState12AdsCallState17ResourceTypeStateEESt10_Select1stISA_ESt4lessIS3_ESaISA_EE5beginEv(ptr noundef nonnull align 8 dereferenceable(48) %_M_t) #3
  %coerce.dive = getelementptr inbounds %"struct.std::_Rb_tree_const_iterator.254", ptr %retval, i32 0, i32 0
  store ptr %call, ptr %coerce.dive, align 8
  %coerce.dive2 = getelementptr inbounds %"struct.std::_Rb_tree_const_iterator.254", ptr %retval, i32 0, i32 0
  %0 = load ptr, ptr %coerce.dive2, align 8
  ret ptr %0
}

; Function Attrs: mustprogress nounwind uwtable
define noundef zeroext i1 @_ZNK9grpc_core9XdsClient12ChannelState12AdsCallState22HasSubscribedResourcesEv(ptr noundef nonnull align 8 dereferenceable(144) %this) #5 align 2 {
entry:
  %retval = alloca i1, align 1
  %this.addr = alloca ptr, align 8
  %__range1 = alloca ptr, align 8
  %__begin1 = alloca %"struct.std::_Rb_tree_const_iterator.254", align 8
  %__end1 = alloca %"struct.std::_Rb_tree_const_iterator.254", align 8
  %p = alloca ptr, align 8
  store ptr %this, ptr %this.addr, align 8
  %this1 = load ptr, ptr %this.addr, align 8
  %state_map_ = getelementptr inbounds %"class.grpc_core::XdsClient::ChannelState::AdsCallState", ptr %this1, i32 0, i32 7
  store ptr %state_map_, ptr %__range1, align 8
  %0 = load ptr, ptr %__range1, align 8
  %call = call ptr @_ZNKSt3mapIPKN9grpc_core15XdsResourceTypeENS0_9XdsClient12ChannelState12AdsCallState17ResourceTypeStateESt4lessIS3_ESaISt4pairIKS3_S7_EEE5beginEv(ptr noundef nonnull align 8 dereferenceable(48) %0) #3
  %coerce.dive = getelementptr inbounds %"struct.std::_Rb_tree_const_iterator.254", ptr %__begin1, i32 0, i32 0
  store ptr %call, ptr %coerce.dive, align 8
  %1 = load ptr, ptr %__range1, align 8
  %call2 = call ptr @_ZNKSt3mapIPKN9grpc_core15XdsResourceTypeENS0_9XdsClient12ChannelState12AdsCallState17ResourceTypeStateESt4lessIS3_ESaISt4pairIKS3_S7_EEE3endEv(ptr noundef nonnull align 8 dereferenceable(48) %1) #3
  %coerce.dive3 = getelementptr inbounds %"struct.std::_Rb_tree_const_iterator.254", ptr %__end1, i32 0, i32 0
  store ptr %call2, ptr %coerce.dive3, align 8
  br label %for.cond

for.cond:                                         ; preds = %for.inc, %entry
  %call4 = call noundef zeroext i1 @_ZStneRKSt23_Rb_tree_const_iteratorISt4pairIKPKN9grpc_core15XdsResourceTypeENS1_9XdsClient12ChannelState12AdsCallState17ResourceTypeStateEEESD_(ptr noundef nonnull align 8 dereferenceable(8) %__begin1, ptr noundef nonnull align 8 dereferenceable(8) %__end1) #3
  br i1 %call4, label %for.body, label %for.end

for.body:                                         ; preds = %for.cond
  %call5 = call noundef nonnull align 8 dereferenceable(96) ptr @_ZNKSt23_Rb_tree_const_iteratorISt4pairIKPKN9grpc_core15XdsResourceTypeENS1_9XdsClient12ChannelState12AdsCallState17ResourceTypeStateEEEdeEv(ptr noundef nonnull align 8 dereferenceable(8) %__begin1) #3
  store ptr %call5, ptr %p, align 8
  %2 = load ptr, ptr %p, align 8
  %second = getelementptr inbounds %"struct.std::pair.196", ptr %2, i32 0, i32 1
  %subscribed_resources = getelementptr inbounds %"struct.grpc_core::XdsClient::ChannelState::AdsCallState::ResourceTypeState", ptr %second, i32 0, i32 2
  %call6 = call noundef zeroext i1 @_ZNKSt3mapINSt7__cxx1112basic_stringIcSt11char_traitsIcESaIcEEES_IN9grpc_core9XdsClient14XdsResourceKeyESt10unique_ptrINS7_12ChannelState12AdsCallState13ResourceTimerENS6_16OrphanableDeleteEESt4lessIS8_ESaISt4pairIKS8_SE_EEESF_IS5_ESaISH_IKS5_SL_EEE5emptyEv(ptr noundef nonnull align 8 dereferenceable(48) %subscribed_resources) #3
  br i1 %call6, label %if.end, label %if.then

if.then:                                          ; preds = %for.body
  store i1 true, ptr %retval, align 1
  br label %return

if.end:                                           ; preds = %for.body
  br label %for.inc

for.inc:                                          ; preds = %if.end
  %call7 = call noundef nonnull align 8 dereferenceable(8) ptr @_ZNSt23_Rb_tree_const_iteratorISt4pairIKPKN9grpc_core15XdsResourceTypeENS1_9XdsClient12ChannelState12AdsCallState17ResourceTypeStateEEEppEv(ptr noundef nonnull align 8 dereferenceable(8) %__begin1) #3
  br label %for.cond

for.end:                                          ; preds = %for.cond
  store i1 false, ptr %retval, align 1
  br label %return

return:                                           ; preds = %for.end, %if.then
  %3 = load i1, ptr %retval, align 1
  ret i1 %3
}