; Function Attrs: mustprogress nofree nounwind willreturn memory(read) uwtable
define noundef zeroext i1 @_ZNK9grpc_core9XdsClient12ChannelState12AdsCallState22HasSubscribedResourcesEv(ptr noundef nonnull readonly align 8 dereferenceable(144) %this) local_unnamed_addr #10 align 2 {
entry:
  %_M_left.i.i = getelementptr inbounds i8, ptr %this, i64 120
  %0 = load ptr, ptr %_M_left.i.i, align 8
  %add.ptr.i.i = getelementptr inbounds i8, ptr %this, i64 104
  %cmp.i4.not = icmp eq ptr %0, %add.ptr.i.i
  br i1 %cmp.i4.not, label %return, label %for.body

for.body:                                         ; preds = %entry, %for.inc
  %__begin1.sroa.0.05 = phi ptr [ %call.i, %for.inc ], [ %0, %entry ]
  %_M_node_count.i.i = getelementptr inbounds i8, ptr %__begin1.sroa.0.05, i64 120
  %1 = load i64, ptr %_M_node_count.i.i, align 8
  %cmp.i.i.not = icmp ne i64 %1, 0
  br i1 %cmp.i.i.not, label %return, label %for.inc

for.inc:                                          ; preds = %for.body
  %call.i = tail call noundef ptr @_ZSt18_Rb_tree_incrementPKSt18_Rb_tree_node_base(ptr noundef nonnull %__begin1.sroa.0.05) #29
  %cmp.i.not = icmp eq ptr %call.i, %add.ptr.i.i
  br i1 %cmp.i.not, label %return, label %for.body

return:                                           ; preds = %for.body, %for.inc, %entry
  %cmp.i.lcssa = phi i1 [ false, %entry ], [ %cmp.i.i.not, %for.inc ], [ %cmp.i.i.not, %for.body ]
  ret i1 %cmp.i.lcssa
}